target datalayout = "e-m:e-p270:32:32-p271:32:32-p272:64:64-i64:64-i128:128-f80:128-n8:16:32:64-S128"
target triple = "x86_64-pc-linux-gnu"

%struct.__va_list_tag = type { i32, i32, ptr, ptr }
%struct.rb_scan_args_t = type { i32, i32, i32, i32, i8, i8, i8 }

@.str.44 = private unnamed_addr constant [24 x i8] c"bad scan arg format: %s\00", align 1

; Function Attrs: inlinehint nounwind sspstrong willreturn memory(none) uwtable
define internal i32 @rb_isdigit(i32 noundef %0) #1 {
  %2 = alloca i32, align 4
  store i32 %0, ptr %2, align 4, !tbaa !39
  %3 = load i32, ptr %2, align 4, !tbaa !39
  %4 = icmp sle i32 48, %3
  br i1 %4, label %5, label %8

5:                                                ; preds = %1
  %6 = load i32, ptr %2, align 4, !tbaa !39
  %7 = icmp sle i32 %6, 57
  br label %8

8:                                                ; preds = %5, %1
  %9 = phi i1 [ false, %1 ], [ %7, %5 ]
  %10 = zext i1 %9 to i32
  ret i32 %10
}

; Function Attrs: alwaysinline nounwind
define internal ptr @memset.inline(ptr nonnull %0, i32 %1, i64 %2) #15 {
  %4 = alloca ptr, align 8
  %5 = alloca i32, align 4
  %6 = alloca i64, align 8
  store ptr %0, ptr %4, align 8, !tbaa !29
  store i32 %1, ptr %5, align 4, !tbaa !39
  store i64 %2, ptr %6, align 8, !tbaa !7
  %7 = load ptr, ptr %4, align 8, !tbaa !29
  %8 = load i32, ptr %5, align 4, !tbaa !39
  %9 = load i64, ptr %6, align 8, !tbaa !7
  %10 = load ptr, ptr %4, align 8, !tbaa !29
  %11 = call i64 @llvm.objectsize.i64.p0(ptr %10, i1 false, i1 true, i1 false)
  %12 = call ptr @__memset_chk(ptr noundef %7, i32 noundef %8, i64 noundef %9, i64 noundef %11) #23
  ret ptr %12
}

; Function Attrs: nounwind sspstrong uwtable
define internal i32 @rb_scan_args_result(ptr noundef %0, i32 noundef %1) #0 {
  %3 = alloca ptr, align 8
  %4 = alloca i32, align 4
  %5 = alloca i32, align 4
  %6 = alloca i32, align 4
  %7 = alloca i32, align 4
  %8 = alloca i32, align 4
  %9 = alloca i8, align 1
  store ptr %0, ptr %3, align 8, !tbaa !109
  store i32 %1, ptr %4, align 4, !tbaa !39
  call void @llvm.lifetime.start.p0(i64 4, ptr %5) #23
  %10 = load ptr, ptr %3, align 8, !tbaa !109
  %11 = getelementptr inbounds nuw %struct.rb_scan_args_t, ptr %10, i32 0, i32 1
  %12 = load i32, ptr %11, align 4, !tbaa !113
  store i32 %12, ptr %5, align 4, !tbaa !39
  call void @llvm.lifetime.start.p0(i64 4, ptr %6) #23
  %13 = load ptr, ptr %3, align 8, !tbaa !109
  %14 = getelementptr inbounds nuw %struct.rb_scan_args_t, ptr %13, i32 0, i32 2
  %15 = load i32, ptr %14, align 4, !tbaa !114
  store i32 %15, ptr %6, align 4, !tbaa !39
  call void @llvm.lifetime.start.p0(i64 4, ptr %7) #23
  %16 = load ptr, ptr %3, align 8, !tbaa !109
  %17 = getelementptr inbounds nuw %struct.rb_scan_args_t, ptr %16, i32 0, i32 3
  %18 = load i32, ptr %17, align 4, !tbaa !116
  store i32 %18, ptr %7, align 4, !tbaa !39
  call void @llvm.lifetime.start.p0(i64 4, ptr %8) #23
  %19 = load i32, ptr %5, align 4, !tbaa !39
  %20 = load i32, ptr %7, align 4, !tbaa !39
  %21 = add i32 %19, %20
  store i32 %21, ptr %8, align 4, !tbaa !39
  call void @llvm.lifetime.start.p0(i64 1, ptr %9) #23
  %22 = load ptr, ptr %3, align 8, !tbaa !109
  %23 = getelementptr inbounds nuw %struct.rb_scan_args_t, ptr %22, i32 0, i32 4
  %24 = load i8, ptr %23, align 4, !tbaa !115, !range !62, !noundef !63
  %25 = trunc i8 %24 to i1
  %26 = zext i1 %25 to i8
  store i8 %26, ptr %9, align 1, !tbaa !61
  %27 = load i32, ptr %4, align 4, !tbaa !39
  %28 = icmp sge i32 %27, 0
  br i1 %28, label %29, label %31

29:                                               ; preds = %2
  %30 = load i32, ptr %4, align 4, !tbaa !39
  call void @llvm.lifetime.end.p0(i64 1, ptr %9) #23
  call void @llvm.lifetime.end.p0(i64 4, ptr %8) #23
  call void @llvm.lifetime.end.p0(i64 4, ptr %7) #23
  call void @llvm.lifetime.end.p0(i64 4, ptr %6) #23
  call void @llvm.lifetime.end.p0(i64 4, ptr %5) #23
  ret i32 %30

31:                                               ; preds = %2
  %32 = load i32, ptr %4, align 4, !tbaa !39
  %33 = sub i32 0, %32
  %34 = sub i32 %33, 1
  store i32 %34, ptr %4, align 4, !tbaa !39
  %35 = load i32, ptr %4, align 4, !tbaa !39
  %36 = load i32, ptr %8, align 4, !tbaa !39
  %37 = load i8, ptr %9, align 1, !tbaa !61, !range !62, !noundef !63
  %38 = trunc i8 %37 to i1
  br i1 %38, label %39, label %40

39:                                               ; preds = %31
  br label %44

40:                                               ; preds = %31
  %41 = load i32, ptr %8, align 4, !tbaa !39
  %42 = load i32, ptr %6, align 4, !tbaa !39
  %43 = add i32 %41, %42
  br label %44

44:                                               ; preds = %40, %39
  %45 = phi i32 [ -1, %39 ], [ %43, %40 ]
  call void @rb_error_arity(i32 noundef %35, i32 noundef %36, i32 noundef %45) #28
  unreachable
}

; Function Attrs: nounwind sspstrong uwtable
define internal void @rb_scan_args_parse(i32 noundef %0, ptr noundef %1, ptr noundef %2) #0 {
  %4 = alloca i32, align 4
  %5 = alloca ptr, align 8
  %6 = alloca ptr, align 8
  %7 = alloca ptr, align 8
  store i32 %0, ptr %4, align 4, !tbaa !39
  store ptr %1, ptr %5, align 8, !tbaa !64
  store ptr %2, ptr %6, align 8, !tbaa !109
  call void @llvm.lifetime.start.p0(i64 8, ptr %7) #23
  %8 = load ptr, ptr %5, align 8, !tbaa !64
  store ptr %8, ptr %7, align 8, !tbaa !64
  %9 = load ptr, ptr %6, align 8, !tbaa !109
  %10 = call ptr @memset.inline(ptr noundef %9, i32 noundef 0, i64 noundef 20) #23
  %11 = load i32, ptr %4, align 4, !tbaa !39
  %12 = load ptr, ptr %6, align 8, !tbaa !109
  %13 = getelementptr inbounds nuw %struct.rb_scan_args_t, ptr %12, i32 0, i32 0
  store i32 %11, ptr %13, align 4, !tbaa !111
  %14 = load ptr, ptr %7, align 8, !tbaa !64
  %15 = load i8, ptr %14, align 1, !tbaa !50
  %16 = sext i8 %15 to i32
  %17 = call i32 @rb_isdigit(i32 noundef %16) #22
  %18 = icmp ne i32 %17, 0
  br i1 %18, label %19, label %43

19:                                               ; preds = %3
  %20 = load ptr, ptr %7, align 8, !tbaa !64
  %21 = load i8, ptr %20, align 1, !tbaa !50
  %22 = sext i8 %21 to i32
  %23 = sub i32 %22, 48
  %24 = load ptr, ptr %6, align 8, !tbaa !109
  %25 = getelementptr inbounds nuw %struct.rb_scan_args_t, ptr %24, i32 0, i32 1
  store i32 %23, ptr %25, align 4, !tbaa !113
  %26 = load ptr, ptr %7, align 8, !tbaa !64
  %27 = getelementptr i8, ptr %26, i32 1
  store ptr %27, ptr %7, align 8, !tbaa !64
  %28 = load ptr, ptr %7, align 8, !tbaa !64
  %29 = load i8, ptr %28, align 1, !tbaa !50
  %30 = sext i8 %29 to i32
  %31 = call i32 @rb_isdigit(i32 noundef %30) #22
  %32 = icmp ne i32 %31, 0
  br i1 %32, label %33, label %42

33:                                               ; preds = %19
  %34 = load ptr, ptr %7, align 8, !tbaa !64
  %35 = load i8, ptr %34, align 1, !tbaa !50
  %36 = sext i8 %35 to i32
  %37 = sub i32 %36, 48
  %38 = load ptr, ptr %6, align 8, !tbaa !109
  %39 = getelementptr inbounds nuw %struct.rb_scan_args_t, ptr %38, i32 0, i32 2
  store i32 %37, ptr %39, align 4, !tbaa !114
  %40 = load ptr, ptr %7, align 8, !tbaa !64
  %41 = getelementptr i8, ptr %40, i32 1
  store ptr %41, ptr %7, align 8, !tbaa !64
  br label %42

42:                                               ; preds = %33, %19
  br label %43

43:                                               ; preds = %42, %3
  %44 = load ptr, ptr %7, align 8, !tbaa !64
  %45 = load i8, ptr %44, align 1, !tbaa !50
  %46 = sext i8 %45 to i32
  %47 = icmp eq i32 %46, 42
  br i1 %47, label %48, label %53

48:                                               ; preds = %43
  %49 = load ptr, ptr %6, align 8, !tbaa !109
  %50 = getelementptr inbounds nuw %struct.rb_scan_args_t, ptr %49, i32 0, i32 4
  store i8 1, ptr %50, align 4, !tbaa !115
  %51 = load ptr, ptr %7, align 8, !tbaa !64
  %52 = getelementptr i8, ptr %51, i32 1
  store ptr %52, ptr %7, align 8, !tbaa !64
  br label %53

53:                                               ; preds = %48, %43
  %54 = load ptr, ptr %7, align 8, !tbaa !64
  %55 = load i8, ptr %54, align 1, !tbaa !50
  %56 = sext i8 %55 to i32
  %57 = call i32 @rb_isdigit(i32 noundef %56) #22
  %58 = icmp ne i32 %57, 0
  br i1 %58, label %59, label %68

59:                                               ; preds = %53
  %60 = load ptr, ptr %7, align 8, !tbaa !64
  %61 = load i8, ptr %60, align 1, !tbaa !50
  %62 = sext i8 %61 to i32
  %63 = sub i32 %62, 48
  %64 = load ptr, ptr %6, align 8, !tbaa !109
  %65 = getelementptr inbounds nuw %struct.rb_scan_args_t, ptr %64, i32 0, i32 3
  store i32 %63, ptr %65, align 4, !tbaa !116
  %66 = load ptr, ptr %7, align 8, !tbaa !64
  %67 = getelementptr i8, ptr %66, i32 1
  store ptr %67, ptr %7, align 8, !tbaa !64
  br label %68

68:                                               ; preds = %59, %53
  %69 = load ptr, ptr %7, align 8, !tbaa !64
  %70 = load i8, ptr %69, align 1, !tbaa !50
  %71 = sext i8 %70 to i32
  %72 = icmp eq i32 %71, 58
  br i1 %72, label %73, label %78

73:                                               ; preds = %68
  %74 = load ptr, ptr %6, align 8, !tbaa !109
  %75 = getelementptr inbounds nuw %struct.rb_scan_args_t, ptr %74, i32 0, i32 5
  store i8 1, ptr %75, align 1, !tbaa !117
  %76 = load ptr, ptr %7, align 8, !tbaa !64
  %77 = getelementptr i8, ptr %76, i32 1
  store ptr %77, ptr %7, align 8, !tbaa !64
  br label %78

78:                                               ; preds = %73, %68
  %79 = load ptr, ptr %7, align 8, !tbaa !64
  %80 = load i8, ptr %79, align 1, !tbaa !50
  %81 = sext i8 %80 to i32
  %82 = icmp eq i32 %81, 38
  br i1 %82, label %83, label %88

83:                                               ; preds = %78
  %84 = load ptr, ptr %6, align 8, !tbaa !109
  %85 = getelementptr inbounds nuw %struct.rb_scan_args_t, ptr %84, i32 0, i32 6
  store i8 1, ptr %85, align 2, !tbaa !118
  %86 = load ptr, ptr %7, align 8, !tbaa !64
  %87 = getelementptr i8, ptr %86, i32 1
  store ptr %87, ptr %7, align 8, !tbaa !64
  br label %88

88:                                               ; preds = %83, %78
  %89 = load ptr, ptr %7, align 8, !tbaa !64
  %90 = load i8, ptr %89, align 1, !tbaa !50
  %91 = sext i8 %90 to i32
  %92 = icmp ne i32 %91, 0
  br i1 %92, label %93, label %95

93:                                               ; preds = %88
  %94 = load ptr, ptr %5, align 8, !tbaa !64
  call void (ptr, ...) @rb_fatal(ptr noundef @.str.44, ptr noundef %94) #28
  unreachable

95:                                               ; preds = %88
  call void @llvm.lifetime.end.p0(i64 8, ptr %7) #23
  ret void
}

; Function Attrs: nounwind sspstrong uwtable
define dso_local i32 @rb_scan_args_kw(i32 noundef %0, i32 noundef %1, ptr noundef nonnull %2, ptr noundef nonnull %3, ...) #0 {
  %5 = alloca i32, align 4
  %6 = alloca i32, align 4
  %7 = alloca ptr, align 8
  %8 = alloca ptr, align 8
  %9 = alloca [1 x %struct.__va_list_tag], align 16
  %10 = alloca %struct.rb_scan_args_t, align 4
  store i32 %0, ptr %5, align 4, !tbaa !39
  store i32 %1, ptr %6, align 4, !tbaa !39
  store ptr %2, ptr %7, align 8, !tbaa !40
  store ptr %3, ptr %8, align 8, !tbaa !64
  call void @llvm.lifetime.start.p0(i64 24, ptr %9) #23
  call void @llvm.lifetime.start.p0(i64 20, ptr %10) #23
  %11 = load i32, ptr %5, align 4, !tbaa !39
  %12 = load ptr, ptr %8, align 8, !tbaa !64
  call void @rb_scan_args_parse(i32 noundef %11, ptr noundef %12, ptr noundef %10)
  %13 = getelementptr inbounds [1 x %struct.__va_list_tag], ptr %9, i64 0, i64 0
  call void @llvm.va_start.p0(ptr %13)
  %14 = load i32, ptr %6, align 4, !tbaa !39
  %15 = load ptr, ptr %7, align 8, !tbaa !40
  %16 = getelementptr inbounds [1 x %struct.__va_list_tag], ptr %9, i64 0, i64 0
  %17 = call i32 @rb_scan_args_assign(ptr noundef %10, i32 noundef %14, ptr noundef %15, ptr noundef %16)
  store i32 %17, ptr %6, align 4, !tbaa !39
  %18 = getelementptr inbounds [1 x %struct.__va_list_tag], ptr %9, i64 0, i64 0
  call void @llvm.va_end.p0(ptr %18)
  %19 = load i32, ptr %6, align 4, !tbaa !39
  %20 = call i32 @rb_scan_args_result(ptr noundef %10, i32 noundef %19)
  call void @llvm.lifetime.end.p0(i64 20, ptr %10) #23
  call void @llvm.lifetime.end.p0(i64 24, ptr %9) #23
  ret i32 %20
}