; Function Attrs: nounwind sspstrong uwtable
define dso_local range(i32 0, -2147483648) i32 @rb_scan_args_kw(i32 noundef %0, i32 noundef %1, ptr noundef nonnull %2, ptr noundef nonnull %3, ...) local_unnamed_addr #0 {
  %5 = alloca [1 x %struct.__va_list_tag], align 16
  %6 = alloca %struct.rb_scan_args_t, align 4
  call void @llvm.lifetime.start.p0(i64 24, ptr nonnull %5) #19
  call void @llvm.lifetime.start.p0(i64 20, ptr nonnull %6) #19
  %7 = getelementptr inbounds nuw i8, ptr %6, i64 4
  call void @llvm.memset.p0.i64(ptr noundef nonnull align 4 dereferenceable(20) %7, i8 noundef 0, i64 noundef 16, i1 noundef false) #19
  store i32 %0, ptr %6, align 4, !tbaa !107
  %8 = load i8, ptr %3, align 1, !tbaa !32
  %9 = sext i8 %8 to i32
  %10 = add nsw i32 %9, -48
  %11 = icmp ugt i32 %10, 9
  br i1 %11, label %22, label %12

12:                                               ; preds = %4
  %13 = getelementptr inbounds nuw i8, ptr %6, i64 4
  store i32 %10, ptr %13, align 4, !tbaa !98
  %14 = getelementptr i8, ptr %3, i64 1
  %15 = load i8, ptr %14, align 1, !tbaa !32
  %16 = sext i8 %15 to i32
  %17 = add nsw i32 %16, -48
  %18 = icmp ugt i32 %17, 9
  br i1 %18, label %22, label %19

19:                                               ; preds = %12
  %20 = getelementptr inbounds nuw i8, ptr %6, i64 8
  store i32 %17, ptr %20, align 4, !tbaa !100
  %21 = getelementptr i8, ptr %3, i64 2
  %.pre.i = load i8, ptr %21, align 1, !tbaa !32
  br label %22

22:                                               ; preds = %19, %12, %4
  %23 = phi i32 [ %17, %19 ], [ 0, %12 ], [ 0, %4 ]
  %24 = phi i32 [ %10, %19 ], [ %10, %12 ], [ 0, %4 ]
  %25 = phi i8 [ %.pre.i, %19 ], [ %15, %12 ], [ %8, %4 ]
  %.0.i = phi ptr [ %21, %19 ], [ %14, %12 ], [ %3, %4 ]
  %26 = icmp eq i8 %25, 42
  br i1 %26, label %27, label %30

27:                                               ; preds = %22
  %28 = getelementptr inbounds nuw i8, ptr %6, i64 16
  store i8 1, ptr %28, align 4, !tbaa !101
  %29 = getelementptr i8, ptr %.0.i, i64 1
  %.pre29.i = load i8, ptr %29, align 1, !tbaa !32
  br label %30

30:                                               ; preds = %27, %22
  %31 = phi i8 [ %.pre29.i, %27 ], [ %25, %22 ]
  %.1.i = phi ptr [ %29, %27 ], [ %.0.i, %22 ]
  %32 = sext i8 %31 to i32
  %33 = add nsw i32 %32, -48
  %34 = icmp ugt i32 %33, 9
  br i1 %34, label %38, label %35

35:                                               ; preds = %30
  %36 = getelementptr inbounds nuw i8, ptr %6, i64 12
  store i32 %33, ptr %36, align 4, !tbaa !102
  %37 = getelementptr i8, ptr %.1.i, i64 1
  %.pre30.i = load i8, ptr %37, align 1, !tbaa !32
  br label %38

38:                                               ; preds = %35, %30
  %39 = phi i32 [ %33, %35 ], [ 0, %30 ]
  %40 = phi i8 [ %.pre30.i, %35 ], [ %31, %30 ]
  %.2.i = phi ptr [ %37, %35 ], [ %.1.i, %30 ]
  %41 = icmp eq i8 %40, 58
  br i1 %41, label %42, label %45

42:                                               ; preds = %38
  %43 = getelementptr inbounds nuw i8, ptr %6, i64 17
  store i8 1, ptr %43, align 1, !tbaa !103
  %44 = getelementptr i8, ptr %.2.i, i64 1
  %.pr.i = load i8, ptr %44, align 1, !tbaa !32
  br label %45

45:                                               ; preds = %42, %38
  %46 = phi i8 [ %.pr.i, %42 ], [ %40, %38 ]
  %.3.i = phi ptr [ %44, %42 ], [ %.2.i, %38 ]
  %47 = icmp eq i8 %46, 38
  br i1 %47, label %48, label %51

48:                                               ; preds = %45
  %49 = getelementptr inbounds nuw i8, ptr %6, i64 18
  store i8 1, ptr %49, align 2, !tbaa !104
  %50 = getelementptr i8, ptr %.3.i, i64 1
  %.pre31.i = load i8, ptr %50, align 1, !tbaa !32
  br label %51

51:                                               ; preds = %48, %45
  %52 = phi i8 [ %.pre31.i, %48 ], [ %46, %45 ]
  %.not28.i = icmp eq i8 %52, 0
  br i1 %.not28.i, label %rb_scan_args_parse.exit, label %53

53:                                               ; preds = %51
  tail call void (ptr, ...) @rb_fatal(ptr noundef nonnull @.str.44, ptr noundef nonnull %3) #21
  unreachable

rb_scan_args_parse.exit:                          ; preds = %51
  call void @llvm.va_start.p0(ptr nonnull %5)
  %54 = call fastcc i32 @rb_scan_args_assign(ptr noundef %6, i32 noundef %1, ptr noundef %2, ptr noundef %5)
  call void @llvm.va_end.p0(ptr nonnull %5)
  %55 = icmp sgt i32 %54, -1
  br i1 %55, label %rb_scan_args_result.exit, label %56

56:                                               ; preds = %rb_scan_args_parse.exit
  %57 = add nuw nsw i32 %39, %24
  %58 = xor i32 %54, -1
  %59 = add nuw nsw i32 %57, %23
  %60 = select i1 %26, i32 -1, i32 %59
  call void @rb_error_arity(i32 noundef %58, i32 noundef %57, i32 noundef %60) #21
  unreachable

rb_scan_args_result.exit:                         ; preds = %rb_scan_args_parse.exit
  call void @llvm.lifetime.end.p0(i64 20, ptr nonnull %6) #19
  call void @llvm.lifetime.end.p0(i64 24, ptr nonnull %5) #19
  ret i32 %54
}